(dp1
S'owner'
p2
(dp3
S'type'
p4
S'reference auth_user'
p5
sS'sortable'
p6
I2
sS'sql'
p7
S'INTEGER REFERENCES auth_user(id) ON DELETE CASCADE'
p8
ssS'activetemplate'
p9
(dp10
g4
S'string'
p11
sg6
I4
sg7
S'CHAR(512)'
p12
ssS'id'
p13
(dp14
g4
S'id'
p15
sg6
I1
sg7
S'INTEGER PRIMARY KEY AUTOINCREMENT'
p16
ssS'resumeurl'
p17
(dp18
g4
g11
sg6
I3
sg7
S'CHAR(512) UNIQUE'
p19
ss.