(dp1
S'msn'
p2
S'CHAR(512)'
p3
sS'gchat'
p4
S'CHAR(512)'
p5
sS'yahoo'
p6
S'CHAR(512)'
p7
sS'birthdate'
p8
S'DATE'
p9
sS'aim'
p10
S'CHAR(512)'
p11
sS'office_phone'
p12
S'CHAR(512)'
p13
sS'home_phone'
p14
S'CHAR(512)'
p15
sS'skype'
p16
S'CHAR(512)'
p17
sS'owner'
p18
S'INTEGER REFERENCES auth_user(id) ON DELETE CASCADE'
p19
sS'cell_phone'
p20
S'CHAR(512)'
p21
sS'id'
p22
S'INTEGER PRIMARY KEY AUTOINCREMENT'
p23
s.